target datalayout = "e-m:e-p270:32:32-p271:32:32-p272:64:64-i64:64-i128:128-f80:128-n8:16:32:64-S128"
target triple = "x86_64-unknown-linux-gnu"

%"class.boost::detail::shared_count" = type { ptr }
%"class.QuantLib::Date" = type { i64 }
%"class.QuantLib::DayCounter" = type { %"class.boost::shared_ptr.16" }
%"class.boost::shared_ptr.16" = type { ptr, %"class.boost::detail::shared_count" }
%"class.boost::shared_ptr.55" = type { ptr, %"class.boost::detail::shared_count" }
%"class.QuantLib::CmsSpreadLeg" = type <{ %"class.QuantLib::Schedule", %"class.boost::shared_ptr.55", %"class.std::vector.35", %"class.QuantLib::DayCounter", i32, [4 x i8], %"class.std::vector.65", %"class.std::vector.35", %"class.std::vector.35", %"class.std::vector.35", %"class.std::vector.35", i8, i8, [6 x i8] }>
%"class.QuantLib::Schedule" = type { %"class.boost::optional", %"class.QuantLib::Calendar", i32, %"class.boost::optional.56", %"class.boost::optional.57", %"class.boost::optional.59", %"class.QuantLib::Date", %"class.QuantLib::Date", %"class.std::vector.30", %"class.std::vector.61" }
%"class.boost::optional" = type { %"class.boost::optional_detail::optional_base" }
%"class.boost::optional_detail::optional_base" = type { i8, [3 x i8], %"class.boost::optional_detail::aligned_storage" }
%"class.boost::optional_detail::aligned_storage" = type { %"union.boost::optional_detail::aligned_storage<QuantLib::Period>::dummy_u" }
%"union.boost::optional_detail::aligned_storage<QuantLib::Period>::dummy_u" = type { [8 x i8] }
%"class.QuantLib::Calendar" = type { %"class.boost::shared_ptr.17" }
%"class.boost::shared_ptr.17" = type { ptr, %"class.boost::detail::shared_count" }
%"class.boost::optional.56" = type { %"class.boost::optional_detail::tc_optional_base" }
%"class.boost::optional_detail::tc_optional_base" = type { i8, i32 }
%"class.boost::optional.57" = type { %"class.boost::optional_detail::tc_optional_base.58" }
%"class.boost::optional_detail::tc_optional_base.58" = type { i8, i32 }
%"class.boost::optional.59" = type { %"class.boost::optional_detail::tc_optional_base.60" }
%"class.boost::optional_detail::tc_optional_base.60" = type { i8, i8 }
%"class.std::vector.30" = type { %"struct.std::_Vector_base.31" }
%"struct.std::_Vector_base.31" = type { %"struct.std::_Vector_base<QuantLib::Date, std::allocator<QuantLib::Date>>::_Vector_impl" }
%"struct.std::_Vector_base<QuantLib::Date, std::allocator<QuantLib::Date>>::_Vector_impl" = type { %"struct.std::_Vector_base<QuantLib::Date, std::allocator<QuantLib::Date>>::_Vector_impl_data" }
%"struct.std::_Vector_base<QuantLib::Date, std::allocator<QuantLib::Date>>::_Vector_impl_data" = type { ptr, ptr, ptr }
%"class.std::vector.61" = type { %"struct.std::_Bvector_base" }
%"struct.std::_Bvector_base" = type { %"struct.std::_Bvector_base<std::allocator<bool>>::_Bvector_impl" }
%"struct.std::_Bvector_base<std::allocator<bool>>::_Bvector_impl" = type { %"struct.std::_Bvector_base<std::allocator<bool>>::_Bvector_impl_data" }
%"struct.std::_Bvector_base<std::allocator<bool>>::_Bvector_impl_data" = type { %"struct.std::_Bit_iterator", %"struct.std::_Bit_iterator", ptr }
%"struct.std::_Bit_iterator" = type { %"struct.std::_Bit_iterator_base.base", [4 x i8] }
%"struct.std::_Bit_iterator_base.base" = type <{ ptr, i32 }>
%"class.std::vector.65" = type { %"struct.std::_Vector_base.66" }
%"struct.std::_Vector_base.66" = type { %"struct.std::_Vector_base<unsigned int, std::allocator<unsigned int>>::_Vector_impl" }
%"struct.std::_Vector_base<unsigned int, std::allocator<unsigned int>>::_Vector_impl" = type { %"struct.std::_Vector_base<unsigned int, std::allocator<unsigned int>>::_Vector_impl_data" }
%"struct.std::_Vector_base<unsigned int, std::allocator<unsigned int>>::_Vector_impl_data" = type { ptr, ptr, ptr }
%"class.std::vector.35" = type { %"struct.std::_Vector_base.36" }
%"struct.std::_Vector_base.36" = type { %"struct.std::_Vector_base<double, std::allocator<double>>::_Vector_impl" }
%"struct.std::_Vector_base<double, std::allocator<double>>::_Vector_impl" = type { %"struct.std::_Vector_base<double, std::allocator<double>>::_Vector_impl_data" }
%"struct.std::_Vector_base<double, std::allocator<double>>::_Vector_impl_data" = type { ptr, ptr, ptr }
%"class.std::vector.70" = type { %"struct.std::_Vector_base.71" }
%"struct.std::_Vector_base.71" = type { %"struct.std::_Vector_base<boost::shared_ptr<QuantLib::CashFlow>, std::allocator<boost::shared_ptr<QuantLib::CashFlow>>>::_Vector_impl" }
%"struct.std::_Vector_base<boost::shared_ptr<QuantLib::CashFlow>, std::allocator<boost::shared_ptr<QuantLib::CashFlow>>>::_Vector_impl" = type { %"struct.std::_Vector_base<boost::shared_ptr<QuantLib::CashFlow>, std::allocator<boost::shared_ptr<QuantLib::CashFlow>>>::_Vector_impl_data" }
%"struct.std::_Vector_base<boost::shared_ptr<QuantLib::CashFlow>, std::allocator<boost::shared_ptr<QuantLib::CashFlow>>>::_Vector_impl_data" = type { ptr, ptr, ptr }
%"class.QuantLib::Period" = type { i32, i32 }

; Function Attrs: mustprogress nounwind uwtable
define linkonce_odr void @_ZN5boost6detail12shared_countC2Ev(ptr noundef nonnull align 8 dereferenceable(8) %this) unnamed_addr #1 comdat align 2 {
entry:
  %this.addr = alloca ptr, align 8
  store ptr %this, ptr %this.addr, align 8, !tbaa !3
  %this1 = load ptr, ptr %this.addr, align 8
  %pi_ = getelementptr inbounds nuw %"class.boost::detail::shared_count", ptr %this1, i32 0, i32 0
  store ptr null, ptr %pi_, align 8, !tbaa !122
  ret void
}

; Function Attrs: mustprogress nounwind uwtable
define linkonce_odr void @_ZN5boost10shared_ptrIN8QuantLib8Calendar4ImplEEC2Ev(ptr noundef nonnull align 8 dereferenceable(16) %this) unnamed_addr #1 comdat align 2 {
entry:
  %this.addr = alloca ptr, align 8
  store ptr %this, ptr %this.addr, align 8, !tbaa !3
  %this1 = load ptr, ptr %this.addr, align 8
  %px = getelementptr inbounds nuw %"class.boost::shared_ptr.17", ptr %this1, i32 0, i32 0
  store ptr null, ptr %px, align 8, !tbaa !128
  %pn = getelementptr inbounds nuw %"class.boost::shared_ptr.17", ptr %this1, i32 0, i32 1
  call void @_ZN5boost6detail12shared_countC2Ev(ptr noundef nonnull align 8 dereferenceable(8) %pn) #14
  ret void
}

; Function Attrs: mustprogress nounwind uwtable
define linkonce_odr void @_ZN8QuantLib6PeriodC2Ev(ptr noundef nonnull align 4 dereferenceable(8) %this) unnamed_addr #1 comdat align 2 {
entry:
  %this.addr = alloca ptr, align 8
  store ptr %this, ptr %this.addr, align 8, !tbaa !3
  %this1 = load ptr, ptr %this.addr, align 8
  %length_ = getelementptr inbounds nuw %"class.QuantLib::Period", ptr %this1, i32 0, i32 0
  store i32 0, ptr %length_, align 4, !tbaa !88
  %units_ = getelementptr inbounds nuw %"class.QuantLib::Period", ptr %this1, i32 0, i32 1
  store i32 0, ptr %units_, align 4, !tbaa !91
  ret void
}

; Function Attrs: mustprogress nounwind uwtable
define linkonce_odr void @_ZN8QuantLib8CalendarC2Ev(ptr noundef nonnull align 8 dereferenceable(16) %this) unnamed_addr #1 comdat align 2 {
entry:
  %this.addr = alloca ptr, align 8
  store ptr %this, ptr %this.addr, align 8, !tbaa !3
  %this1 = load ptr, ptr %this.addr, align 8
  %impl_ = getelementptr inbounds nuw %"class.QuantLib::Calendar", ptr %this1, i32 0, i32 0
  call void @_ZN5boost10shared_ptrIN8QuantLib8Calendar4ImplEEC2Ev(ptr noundef nonnull align 8 dereferenceable(16) %impl_) #14
  ret void
}

; Function Attrs: mustprogress uwtable
define void @_ZNK8QuantLib12CmsSpreadLegcvSt6vectorIN5boost10shared_ptrINS_8CashFlowEEESaIS5_EEEv(ptr dead_on_unwind noalias writable sret(%"class.std::vector.70") align 8 %agg.result, ptr noundef nonnull align 8 dereferenceable(322) %this) #2 align 2 personality ptr @__gxx_personality_v0 {
entry:
  %result.ptr = alloca ptr, align 8
  %this.addr = alloca ptr, align 8
  %agg.tmp = alloca %"class.QuantLib::Calendar", align 8
  %agg.tmp3 = alloca %"class.QuantLib::Period", align 4
  %agg.tmp4 = alloca %"class.QuantLib::Calendar", align 8
  %exn.slot = alloca ptr, align 8
  %ehselector.slot = alloca i32, align 4
  store ptr %agg.result, ptr %result.ptr, align 8
  store ptr %this, ptr %this.addr, align 8, !tbaa !3
  %this1 = load ptr, ptr %this.addr, align 8
  %schedule_ = getelementptr inbounds nuw %"class.QuantLib::CmsSpreadLeg", ptr %this1, i32 0, i32 0
  %notionals_ = getelementptr inbounds nuw %"class.QuantLib::CmsSpreadLeg", ptr %this1, i32 0, i32 2
  %swapSpreadIndex_ = getelementptr inbounds nuw %"class.QuantLib::CmsSpreadLeg", ptr %this1, i32 0, i32 1
  %paymentDayCounter_ = getelementptr inbounds nuw %"class.QuantLib::CmsSpreadLeg", ptr %this1, i32 0, i32 3
  %paymentAdjustment_ = getelementptr inbounds nuw %"class.QuantLib::CmsSpreadLeg", ptr %this1, i32 0, i32 4
  %0 = load i32, ptr %paymentAdjustment_, align 8, !tbaa !39
  %fixingDays_ = getelementptr inbounds nuw %"class.QuantLib::CmsSpreadLeg", ptr %this1, i32 0, i32 6
  %gearings_ = getelementptr inbounds nuw %"class.QuantLib::CmsSpreadLeg", ptr %this1, i32 0, i32 7
  %spreads_ = getelementptr inbounds nuw %"class.QuantLib::CmsSpreadLeg", ptr %this1, i32 0, i32 8
  %caps_ = getelementptr inbounds nuw %"class.QuantLib::CmsSpreadLeg", ptr %this1, i32 0, i32 9
  %floors_ = getelementptr inbounds nuw %"class.QuantLib::CmsSpreadLeg", ptr %this1, i32 0, i32 10
  %inArrears_ = getelementptr inbounds nuw %"class.QuantLib::CmsSpreadLeg", ptr %this1, i32 0, i32 11
  %1 = load i8, ptr %inArrears_, align 8, !tbaa !75, !range !15, !noundef !16
  %loadedv = trunc i8 %1 to i1
  %zeroPayments_ = getelementptr inbounds nuw %"class.QuantLib::CmsSpreadLeg", ptr %this1, i32 0, i32 12
  %2 = load i8, ptr %zeroPayments_, align 1, !tbaa !76, !range !15, !noundef !16
  %loadedv2 = trunc i8 %2 to i1
  call void @llvm.memset.p0.i64(ptr align 8 %agg.tmp, i8 0, i64 16, i1 false)
  call void @_ZN8QuantLib8CalendarC2Ev(ptr noundef nonnull align 8 dereferenceable(16) %agg.tmp) #14
  call void @llvm.memset.p0.i64(ptr align 4 %agg.tmp3, i8 0, i64 8, i1 false)
  call void @_ZN8QuantLib6PeriodC2Ev(ptr noundef nonnull align 4 dereferenceable(8) %agg.tmp3) #14
  call void @llvm.memset.p0.i64(ptr align 8 %agg.tmp4, i8 0, i64 16, i1 false)
  call void @_ZN8QuantLib8CalendarC2Ev(ptr noundef nonnull align 8 dereferenceable(16) %agg.tmp4) #14
  %3 = load i64, ptr %agg.tmp3, align 4
  invoke void @_ZN8QuantLib11FloatingLegINS_15SwapSpreadIndexENS_15CmsSpreadCouponENS_28CappedFlooredCmsSpreadCouponEEESt6vectorIN5boost10shared_ptrINS_8CashFlowEEESaIS8_EERKNS_8ScheduleERKS4_IdSaIdEERKNS6_IT_EERKNS_10DayCounterENS_21BusinessDayConventionERKS4_IjSaIjEESH_SH_SH_SH_bbiNS_8CalendarENS_6PeriodESU_SP_b(ptr dead_on_unwind writable sret(%"class.std::vector.70") align 8 %agg.result, ptr noundef nonnull align 8 dereferenceable(136) %schedule_, ptr noundef nonnull align 8 dereferenceable(24) %notionals_, ptr noundef nonnull align 8 dereferenceable(16) %swapSpreadIndex_, ptr noundef nonnull align 8 dereferenceable(16) %paymentDayCounter_, i32 noundef %0, ptr noundef nonnull align 8 dereferenceable(24) %fixingDays_, ptr noundef nonnull align 8 dereferenceable(24) %gearings_, ptr noundef nonnull align 8 dereferenceable(24) %spreads_, ptr noundef nonnull align 8 dereferenceable(24) %caps_, ptr noundef nonnull align 8 dereferenceable(24) %floors_, i1 noundef zeroext %loadedv, i1 noundef zeroext %loadedv2, i32 noundef 0, ptr noundef %agg.tmp, i64 %3, ptr noundef %agg.tmp4, i32 noundef 4, i1 noundef zeroext false)
          to label %invoke.cont unwind label %lpad

invoke.cont:                                      ; preds = %entry
  call void @_ZN8QuantLib8CalendarD2Ev(ptr noundef nonnull align 8 dereferenceable(16) %agg.tmp4) #14
  call void @_ZN8QuantLib8CalendarD2Ev(ptr noundef nonnull align 8 dereferenceable(16) %agg.tmp) #14
  ret void

lpad:                                             ; preds = %entry
  %4 = landingpad { ptr, i32 }
          cleanup
  %5 = extractvalue { ptr, i32 } %4, 0
  store ptr %5, ptr %exn.slot, align 8
  %6 = extractvalue { ptr, i32 } %4, 1
  store i32 %6, ptr %ehselector.slot, align 4
  call void @_ZN8QuantLib8CalendarD2Ev(ptr noundef nonnull align 8 dereferenceable(16) %agg.tmp4) #14
  call void @_ZN8QuantLib8CalendarD2Ev(ptr noundef nonnull align 8 dereferenceable(16) %agg.tmp) #14
  br label %eh.resume

eh.resume:                                        ; preds = %lpad
  %exn = load ptr, ptr %exn.slot, align 8
  %sel = load i32, ptr %ehselector.slot, align 4
  %lpad.val = insertvalue { ptr, i32 } poison, ptr %exn, 0
  %lpad.val5 = insertvalue { ptr, i32 } %lpad.val, i32 %sel, 1
  resume { ptr, i32 } %lpad.val5
}