; Function Attrs: mustprogress uwtable
define void @_ZNK8QuantLib12CmsSpreadLegcvSt6vectorIN5boost10shared_ptrINS_8CashFlowEEESaIS5_EEEv(ptr dead_on_unwind noalias writable sret(%"class.std::vector.70") align 8 %agg.result, ptr noundef nonnull align 8 dereferenceable(322) %this) local_unnamed_addr #8 align 2 personality ptr @__gxx_personality_v0 {
entry:
  %agg.tmp = alloca %"class.QuantLib::Calendar", align 8
  %agg.tmp4 = alloca %"class.QuantLib::Calendar", align 8
  %notionals_ = getelementptr inbounds nuw i8, ptr %this, i64 152
  %swapSpreadIndex_ = getelementptr inbounds nuw i8, ptr %this, i64 136
  %paymentDayCounter_ = getelementptr inbounds nuw i8, ptr %this, i64 176
  %paymentAdjustment_ = getelementptr inbounds nuw i8, ptr %this, i64 192
  %0 = load i32, ptr %paymentAdjustment_, align 8, !tbaa !80
  %fixingDays_ = getelementptr inbounds nuw i8, ptr %this, i64 200
  %gearings_ = getelementptr inbounds nuw i8, ptr %this, i64 224
  %spreads_ = getelementptr inbounds nuw i8, ptr %this, i64 248
  %caps_ = getelementptr inbounds nuw i8, ptr %this, i64 272
  %floors_ = getelementptr inbounds nuw i8, ptr %this, i64 296
  %inArrears_ = getelementptr inbounds nuw i8, ptr %this, i64 320
  %1 = load i8, ptr %inArrears_, align 8, !tbaa !108, !range !26, !noundef !27
  %loadedv = trunc nuw i8 %1 to i1
  %zeroPayments_ = getelementptr inbounds nuw i8, ptr %this, i64 321
  %2 = load i8, ptr %zeroPayments_, align 1, !tbaa !109, !range !26, !noundef !27
  %loadedv2 = trunc nuw i8 %2 to i1
  call void @llvm.memset.p0.i64(ptr noundef nonnull align 8 dereferenceable(16) %agg.tmp, i8 0, i64 16, i1 false)
  call void @llvm.memset.p0.i64(ptr noundef nonnull align 8 dereferenceable(16) %agg.tmp4, i8 0, i64 16, i1 false)
  invoke void @_ZN8QuantLib11FloatingLegINS_15SwapSpreadIndexENS_15CmsSpreadCouponENS_28CappedFlooredCmsSpreadCouponEEESt6vectorIN5boost10shared_ptrINS_8CashFlowEEESaIS8_EERKNS_8ScheduleERKS4_IdSaIdEERKNS6_IT_EERKNS_10DayCounterENS_21BusinessDayConventionERKS4_IjSaIjEESH_SH_SH_SH_bbiNS_8CalendarENS_6PeriodESU_SP_b(ptr dead_on_unwind writable sret(%"class.std::vector.70") align 8 %agg.result, ptr noundef nonnull align 8 dereferenceable(136) %this, ptr noundef nonnull align 8 dereferenceable(24) %notionals_, ptr noundef nonnull align 8 dereferenceable(16) %swapSpreadIndex_, ptr noundef nonnull align 8 dereferenceable(16) %paymentDayCounter_, i32 noundef %0, ptr noundef nonnull align 8 dereferenceable(24) %fixingDays_, ptr noundef nonnull align 8 dereferenceable(24) %gearings_, ptr noundef nonnull align 8 dereferenceable(24) %spreads_, ptr noundef nonnull align 8 dereferenceable(24) %caps_, ptr noundef nonnull align 8 dereferenceable(24) %floors_, i1 noundef zeroext %loadedv, i1 noundef zeroext %loadedv2, i32 noundef 0, ptr noundef nonnull %agg.tmp, i64 0, ptr noundef nonnull %agg.tmp4, i32 noundef 4, i1 noundef zeroext false)
          to label %invoke.cont unwind label %lpad

invoke.cont:                                      ; preds = %entry
  %pn.i.i = getelementptr inbounds nuw i8, ptr %agg.tmp4, i64 8
  %3 = load ptr, ptr %pn.i.i, align 8, !tbaa !48
  %cmp.not.i.i.i = icmp eq ptr %3, null
  br i1 %cmp.not.i.i.i, label %_ZN8QuantLib8CalendarD2Ev.exit, label %if.then.i.i.i

if.then.i.i.i:                                    ; preds = %invoke.cont
  %use_count_.i.i.i.i = getelementptr inbounds nuw i8, ptr %3, i64 8
  %4 = atomicrmw sub ptr %use_count_.i.i.i.i, i32 1 acq_rel, align 4
  %cmp.i.i.i.i = icmp eq i32 %4, 1
  br i1 %cmp.i.i.i.i, label %if.then.i.i.i.i, label %_ZN8QuantLib8CalendarD2Ev.exit

if.then.i.i.i.i:                                  ; preds = %if.then.i.i.i
  %vtable.i.i.i.i = load ptr, ptr %3, align 8, !tbaa !33
  %vfn.i.i.i.i = getelementptr inbounds i8, ptr %vtable.i.i.i.i, i64 16
  %5 = load ptr, ptr %vfn.i.i.i.i, align 8
  invoke void %5(ptr noundef nonnull align 8 dereferenceable(16) %3)
          to label %.noexc.i.i.i unwind label %terminate.lpad.i.i.i

.noexc.i.i.i:                                     ; preds = %if.then.i.i.i.i
  %weak_count_.i.i.i.i.i = getelementptr inbounds nuw i8, ptr %3, i64 12
  %6 = atomicrmw sub ptr %weak_count_.i.i.i.i.i, i32 1 acq_rel, align 4
  %cmp.i.i.i.i.i = icmp eq i32 %6, 1
  br i1 %cmp.i.i.i.i.i, label %if.then.i.i.i.i.i, label %_ZN8QuantLib8CalendarD2Ev.exit

if.then.i.i.i.i.i:                                ; preds = %.noexc.i.i.i
  %vtable.i.i.i.i.i = load ptr, ptr %3, align 8, !tbaa !33
  %vfn.i.i.i.i.i = getelementptr inbounds i8, ptr %vtable.i.i.i.i.i, i64 24
  %7 = load ptr, ptr %vfn.i.i.i.i.i, align 8
  invoke void %7(ptr noundef nonnull align 8 dereferenceable(16) %3)
          to label %_ZN8QuantLib8CalendarD2Ev.exit unwind label %terminate.lpad.i.i.i

terminate.lpad.i.i.i:                             ; preds = %if.then.i.i.i.i.i, %if.then.i.i.i.i
  %8 = landingpad { ptr, i32 }
          catch ptr null
  %9 = extractvalue { ptr, i32 } %8, 0
  call void @__clang_call_terminate(ptr %9) #29
  unreachable

_ZN8QuantLib8CalendarD2Ev.exit:                   ; preds = %invoke.cont, %if.then.i.i.i, %.noexc.i.i.i, %if.then.i.i.i.i.i
  %pn.i.i1 = getelementptr inbounds nuw i8, ptr %agg.tmp, i64 8
  %10 = load ptr, ptr %pn.i.i1, align 8, !tbaa !48
  %cmp.not.i.i.i2 = icmp eq ptr %10, null
  br i1 %cmp.not.i.i.i2, label %_ZN8QuantLib8CalendarD2Ev.exit16, label %if.then.i.i.i3

if.then.i.i.i3:                                   ; preds = %_ZN8QuantLib8CalendarD2Ev.exit
  %use_count_.i.i.i.i4 = getelementptr inbounds nuw i8, ptr %10, i64 8
  %11 = atomicrmw sub ptr %use_count_.i.i.i.i4, i32 1 acq_rel, align 4
  %cmp.i.i.i.i5 = icmp eq i32 %11, 1
  br i1 %cmp.i.i.i.i5, label %if.then.i.i.i.i6, label %_ZN8QuantLib8CalendarD2Ev.exit16

if.then.i.i.i.i6:                                 ; preds = %if.then.i.i.i3
  %vtable.i.i.i.i7 = load ptr, ptr %10, align 8, !tbaa !33
  %vfn.i.i.i.i8 = getelementptr inbounds i8, ptr %vtable.i.i.i.i7, i64 16
  %12 = load ptr, ptr %vfn.i.i.i.i8, align 8
  invoke void %12(ptr noundef nonnull align 8 dereferenceable(16) %10)
          to label %.noexc.i.i.i10 unwind label %terminate.lpad.i.i.i9

.noexc.i.i.i10:                                   ; preds = %if.then.i.i.i.i6
  %weak_count_.i.i.i.i.i11 = getelementptr inbounds nuw i8, ptr %10, i64 12
  %13 = atomicrmw sub ptr %weak_count_.i.i.i.i.i11, i32 1 acq_rel, align 4
  %cmp.i.i.i.i.i12 = icmp eq i32 %13, 1
  br i1 %cmp.i.i.i.i.i12, label %if.then.i.i.i.i.i13, label %_ZN8QuantLib8CalendarD2Ev.exit16

if.then.i.i.i.i.i13:                              ; preds = %.noexc.i.i.i10
  %vtable.i.i.i.i.i14 = load ptr, ptr %10, align 8, !tbaa !33
  %vfn.i.i.i.i.i15 = getelementptr inbounds i8, ptr %vtable.i.i.i.i.i14, i64 24
  %14 = load ptr, ptr %vfn.i.i.i.i.i15, align 8
  invoke void %14(ptr noundef nonnull align 8 dereferenceable(16) %10)
          to label %_ZN8QuantLib8CalendarD2Ev.exit16 unwind label %terminate.lpad.i.i.i9

terminate.lpad.i.i.i9:                            ; preds = %if.then.i.i.i.i.i13, %if.then.i.i.i.i6
  %15 = landingpad { ptr, i32 }
          catch ptr null
  %16 = extractvalue { ptr, i32 } %15, 0
  call void @__clang_call_terminate(ptr %16) #29
  unreachable

_ZN8QuantLib8CalendarD2Ev.exit16:                 ; preds = %_ZN8QuantLib8CalendarD2Ev.exit, %if.then.i.i.i3, %.noexc.i.i.i10, %if.then.i.i.i.i.i13
  ret void

lpad:                                             ; preds = %entry
  %17 = landingpad { ptr, i32 }
          cleanup
  call void @_ZN8QuantLib8CalendarD2Ev(ptr noundef nonnull align 8 dereferenceable(16) %agg.tmp4) #28
  call void @_ZN8QuantLib8CalendarD2Ev(ptr noundef nonnull align 8 dereferenceable(16) %agg.tmp) #28
  resume { ptr, i32 } %17
}